; ModuleID = 'source-C-CXX/46/1111.cpp'
source_filename = "source-C-CXX/46/1111.cpp"
target datalayout = "e-m:e-p270:32:32-p271:32:32-p272:64:64-i64:64-f80:128-n8:16:32:64-S128"
target triple = "x86_64-pc-linux-gnu"

%"class.std::ios_base::Init" = type { i8 }
%"class.std::basic_istream" = type { i32 (...)**, i64, %"class.std::basic_ios" }
%"class.std::basic_ios" = type { %"class.std::ios_base", %"class.std::basic_ostream"*, i8, i8, %"class.std::basic_streambuf"*, %"class.std::ctype"*, %"class.std::num_put"*, %"class.std::num_get"* }
%"class.std::ios_base" = type { i32 (...)**, i64, i64, i32, i32, i32, %"struct.std::ios_base::_Callback_list"*, %"struct.std::ios_base::_Words", [8 x %"struct.std::ios_base::_Words"], i32, %"struct.std::ios_base::_Words"*, %"class.std::locale" }
%"struct.std::ios_base::_Callback_list" = type { %"struct.std::ios_base::_Callback_list"*, void (i32, %"class.std::ios_base"*, i32)*, i32, i32 }
%"struct.std::ios_base::_Words" = type { i8*, i64 }
%"class.std::locale" = type { %"class.std::locale::_Impl"* }
%"class.std::locale::_Impl" = type { i32, %"class.std::locale::facet"**, i64, %"class.std::locale::facet"**, i8** }
%"class.std::locale::facet" = type <{ i32 (...)**, i32, [4 x i8] }>
%"class.std::basic_ostream" = type { i32 (...)**, %"class.std::basic_ios" }
%"class.std::basic_streambuf" = type { i32 (...)**, i8*, i8*, i8*, i8*, i8*, i8*, %"class.std::locale" }
%"class.std::ctype" = type <{ %"class.std::locale::facet.base", [4 x i8], %struct.__locale_struct*, i8, [7 x i8], i32*, i32*, i16*, i8, [256 x i8], [256 x i8], i8, [6 x i8] }>
%"class.std::locale::facet.base" = type <{ i32 (...)**, i32 }>
%struct.__locale_struct = type { [13 x %struct.__locale_data*], i16*, i32*, i32*, [13 x i8*] }
%struct.__locale_data = type opaque
%"class.std::num_put" = type { %"class.std::locale::facet.base", [4 x i8] }
%"class.std::num_get" = type { %"class.std::locale::facet.base", [4 x i8] }

@_ZStL8__ioinit = internal global %"class.std::ios_base::Init" zeroinitializer, align 1
@__dso_handle = external hidden global i8
@_ZSt3cin = external global %"class.std::basic_istream", align 8
@_ZSt4cout = external global %"class.std::basic_ostream", align 8
@.str = private unnamed_addr constant [2 x i8] c" \00", align 1
@llvm.global_ctors = appending global [1 x { i32, void ()*, i8* }] [{ i32, void ()*, i8* } { i32 65535, void ()* @_GLOBAL__sub_I_1111.cpp, i8* null }]

declare void @_ZNSt8ios_base4InitC1Ev(%"class.std::ios_base::Init"* nonnull align 1 dereferenceable(1)) unnamed_addr #0

; Function Attrs: nounwind
declare void @_ZNSt8ios_base4InitD1Ev(%"class.std::ios_base::Init"* nonnull align 1 dereferenceable(1)) unnamed_addr #1

; Function Attrs: nofree nounwind
declare i32 @__cxa_atexit(void (i8*)*, i8*, i8*) local_unnamed_addr #2

; Function Attrs: mustprogress norecurse sspstrong uwtable
define dso_local i32 @main() local_unnamed_addr #3 {
  %1 = alloca [100 x i32], align 16
  %2 = alloca i32, align 4
  %3 = bitcast [100 x i32]* %1 to i8*
  call void @llvm.lifetime.start.p0i8(i64 400, i8* nonnull %3) #6
  %4 = bitcast i32* %2 to i8*
  call void @llvm.lifetime.start.p0i8(i64 4, i8* nonnull %4) #6
  %5 = call nonnull align 8 dereferenceable(16) %"class.std::basic_istream"* @_ZNSirsERi(%"class.std::basic_istream"* nonnull align 8 dereferenceable(16) @_ZSt3cin, i32* nonnull align 4 dereferenceable(4) %2)
  %6 = load i32, i32* %2, align 4, !tbaa !5
  %7 = icmp sgt i32 %6, 0
  br i1 %7, label %15, label %87

8:                                                ; preds = %15
  %9 = icmp sgt i32 %20, 0
  br i1 %9, label %10, label %87

10:                                               ; preds = %8
  %11 = zext i32 %20 to i64
  %12 = add nsw i32 %20, -1
  %13 = zext i32 %12 to i64
  %14 = sub nsw i64 0, %13
  br label %36

15:                                               ; preds = %0, %15
  %16 = phi i64 [ %19, %15 ], [ 0, %0 ]
  %17 = getelementptr inbounds [100 x i32], [100 x i32]* %1, i64 0, i64 %16
  %18 = call nonnull align 8 dereferenceable(16) %"class.std::basic_istream"* @_ZNSirsERi(%"class.std::basic_istream"* nonnull align 8 dereferenceable(16) @_ZSt3cin, i32* nonnull align 4 dereferenceable(4) %17)
  %19 = add nuw nsw i64 %16, 1
  %20 = load i32, i32* %2, align 4, !tbaa !5
  %21 = sext i32 %20 to i64
  %22 = icmp slt i64 %19, %21
  br i1 %22, label %15, label %8, !llvm.loop !9

23:                                               ; preds = %49, %42
  %24 = phi i64 [ 0, %42 ], [ %67, %49 ]
  %25 = icmp eq i64 %44, 0
  br i1 %25, label %34, label %26

26:                                               ; preds = %23
  %27 = sub nsw i64 %11, %24
  %28 = add nsw i64 %27, -1
  %29 = getelementptr inbounds [100 x i32], [100 x i32]* %1, i64 0, i64 %28
  %30 = load i32, i32* %29, align 4, !tbaa !5
  %31 = add nsw i64 %27, -2
  %32 = getelementptr inbounds [100 x i32], [100 x i32]* %1, i64 0, i64 %31
  %33 = load i32, i32* %32, align 4, !tbaa !5
  store i32 %33, i32* %29, align 4, !tbaa !5
  store i32 %30, i32* %32, align 4, !tbaa !5
  br label %34

34:                                               ; preds = %23, %26
  %35 = add i64 %37, 1
  br i1 %41, label %36, label %48, !llvm.loop !11

36:                                               ; preds = %10, %34
  %37 = phi i64 [ 0, %10 ], [ %35, %34 ]
  %38 = phi i32 [ %20, %10 ], [ %40, %34 ]
  %39 = sub i64 %13, %37
  %40 = add nsw i32 %38, -1
  %41 = icmp sgt i32 %38, 1
  br i1 %41, label %42, label %48

42:                                               ; preds = %36
  %43 = xor i64 %37, -1
  %44 = and i64 %39, 1
  %45 = icmp eq i64 %43, %14
  br i1 %45, label %23, label %46

46:                                               ; preds = %42
  %47 = and i64 %39, -2
  br label %49

48:                                               ; preds = %34, %36
  br i1 %9, label %70, label %87

49:                                               ; preds = %49, %46
  %50 = phi i64 [ 0, %46 ], [ %67, %49 ]
  %51 = phi i64 [ %47, %46 ], [ %68, %49 ]
  %52 = sub nsw i64 %11, %50
  %53 = add nsw i64 %52, -1
  %54 = getelementptr inbounds [100 x i32], [100 x i32]* %1, i64 0, i64 %53
  %55 = load i32, i32* %54, align 4, !tbaa !5
  %56 = add nsw i64 %52, -2
  %57 = getelementptr inbounds [100 x i32], [100 x i32]* %1, i64 0, i64 %56
  %58 = load i32, i32* %57, align 4, !tbaa !5
  store i32 %58, i32* %54, align 4, !tbaa !5
  store i32 %55, i32* %57, align 4, !tbaa !5
  %59 = xor i64 %50, -1
  %60 = add nsw i64 %59, %11
  %61 = add nsw i64 %60, -1
  %62 = getelementptr inbounds [100 x i32], [100 x i32]* %1, i64 0, i64 %61
  %63 = load i32, i32* %62, align 4, !tbaa !5
  %64 = add nsw i64 %60, -2
  %65 = getelementptr inbounds [100 x i32], [100 x i32]* %1, i64 0, i64 %64
  %66 = load i32, i32* %65, align 4, !tbaa !5
  store i32 %66, i32* %62, align 4, !tbaa !5
  store i32 %63, i32* %65, align 4, !tbaa !5
  %67 = add nuw nsw i64 %50, 2
  %68 = add i64 %51, -2
  %69 = icmp eq i64 %68, 0
  br i1 %69, label %23, label %49, !llvm.loop !12

70:                                               ; preds = %48, %82
  %71 = phi i64 [ %84, %82 ], [ 0, %48 ]
  %72 = getelementptr inbounds [100 x i32], [100 x i32]* %1, i64 0, i64 %71
  %73 = load i32, i32* %72, align 4, !tbaa !5
  %74 = call nonnull align 8 dereferenceable(8) %"class.std::basic_ostream"* @_ZNSolsEi(%"class.std::basic_ostream"* nonnull align 8 dereferenceable(8) @_ZSt4cout, i32 %73)
  %75 = load i32, i32* %2, align 4, !tbaa !5
  %76 = add nsw i32 %75, -1
  %77 = zext i32 %76 to i64
  %78 = icmp eq i64 %71, %77
  br i1 %78, label %82, label %79

79:                                               ; preds = %70
  %80 = call nonnull align 8 dereferenceable(8) %"class.std::basic_ostream"* @_ZSt16__ostream_insertIcSt11char_traitsIcEERSt13basic_ostreamIT_T0_ES6_PKS3_l(%"class.std::basic_ostream"* nonnull align 8 dereferenceable(8) @_ZSt4cout, i8* nonnull getelementptr inbounds ([2 x i8], [2 x i8]* @.str, i64 0, i64 0), i64 1)
  %81 = load i32, i32* %2, align 4, !tbaa !5
  br label %82

82:                                               ; preds = %70, %79
  %83 = phi i32 [ %75, %70 ], [ %81, %79 ]
  %84 = add nuw nsw i64 %71, 1
  %85 = sext i32 %83 to i64
  %86 = icmp slt i64 %84, %85
  br i1 %86, label %70, label %87, !llvm.loop !13

87:                                               ; preds = %82, %8, %0, %48
  call void @llvm.lifetime.end.p0i8(i64 4, i8* nonnull %4) #6
  call void @llvm.lifetime.end.p0i8(i64 400, i8* nonnull %3) #6
  ret i32 0
}

; Function Attrs: argmemonly mustprogress nofree nosync nounwind willreturn
declare void @llvm.lifetime.start.p0i8(i64 immarg, i8* nocapture) #4

declare nonnull align 8 dereferenceable(16) %"class.std::basic_istream"* @_ZNSirsERi(%"class.std::basic_istream"* nonnull align 8 dereferenceable(16), i32* nonnull align 4 dereferenceable(4)) local_unnamed_addr #0

declare nonnull align 8 dereferenceable(8) %"class.std::basic_ostream"* @_ZNSolsEi(%"class.std::basic_ostream"* nonnull align 8 dereferenceable(8), i32) local_unnamed_addr #0

; Function Attrs: argmemonly mustprogress nofree nosync nounwind willreturn
declare void @llvm.lifetime.end.p0i8(i64 immarg, i8* nocapture) #4

declare nonnull align 8 dereferenceable(8) %"class.std::basic_ostream"* @_ZSt16__ostream_insertIcSt11char_traitsIcEERSt13basic_ostreamIT_T0_ES6_PKS3_l(%"class.std::basic_ostream"* nonnull align 8 dereferenceable(8), i8*, i64) local_unnamed_addr #0

; Function Attrs: sspstrong uwtable
define internal void @_GLOBAL__sub_I_1111.cpp() #5 section ".text.startup" {
  tail call void @_ZNSt8ios_base4InitC1Ev(%"class.std::ios_base::Init"* nonnull align 1 dereferenceable(1) @_ZStL8__ioinit)
  %1 = tail call i32 @__cxa_atexit(void (i8*)* bitcast (void (%"class.std::ios_base::Init"*)* @_ZNSt8ios_base4InitD1Ev to void (i8*)*), i8* getelementptr inbounds (%"class.std::ios_base::Init", %"class.std::ios_base::Init"* @_ZStL8__ioinit, i64 0, i32 0), i8* nonnull @__dso_handle) #6
  ret void
}


!llvm.module.flags = !{!0, !1, !2, !3}
!llvm.ident = !{!4}

!0 = !{i32 1, !"wchar_size", i32 4}
!1 = !{i32 7, !"PIC Level", i32 2}
!2 = !{i32 7, !"PIE Level", i32 2}
!3 = !{i32 7, !"uwtable", i32 1}
!4 = !{!"clang version 13.0.0"}
!5 = !{!6, !6, i64 0}
!6 = !{!"int", !7, i64 0}
!7 = !{!"omnipotent char", !8, i64 0}
!8 = !{!"Simple C++ TBAA"}
!9 = distinct !{!9, !10}
!10 = !{!"llvm.loop.mustprogress"}
!11 = distinct !{!11, !10}
!12 = distinct !{!12, !10}
!13 = distinct !{!13, !10}
